target datalayout = "e-m:e-p270:32:32-p271:32:32-p272:64:64-i64:64-i128:128-f80:128-n8:16:32:64-S128"
target triple = "x86_64-pc-linux-gnu"

%struct.ForEachState = type { ptr, i32 }
%struct.List = type { i32, i32, i32, ptr, [0 x %union.ListCell] }
%union.ListCell = type { ptr }
%struct.PlannedStmt = type { i32, i32, i64, i8, i8, i8, i8, i8, i8, i32, ptr, ptr, ptr, ptr, ptr, ptr, ptr, ptr, ptr, ptr, ptr, ptr, ptr, ptr, i32, i32 }
%struct.RangeTblEntry = type { i32, ptr, ptr, i32, i32, i8, i8, i32, i32, ptr, ptr, i8, i32, i32, ptr, ptr, ptr, ptr, ptr, i8, ptr, ptr, ptr, i32, i8, ptr, ptr, ptr, ptr, double, ptr, i8, i8, ptr }

; Function Attrs: nounwind uwtable
define internal void @AcquireExecutorLocks(ptr noundef %0, i1 noundef zeroext %1) #0 {
  %3 = alloca ptr, align 8
  %4 = alloca i8, align 1
  %5 = alloca ptr, align 8
  %6 = alloca %struct.ForEachState, align 8
  %7 = alloca i32, align 4
  %8 = alloca ptr, align 8
  %9 = alloca ptr, align 8
  %10 = alloca ptr, align 8
  %11 = alloca %struct.ForEachState, align 8
  %12 = alloca ptr, align 8
  store ptr %0, ptr %3, align 8
  %13 = zext i1 %1 to i8
  store i8 %13, ptr %4, align 1
  call void @llvm.lifetime.start.p0(i64 8, ptr %5) #8
  call void @llvm.lifetime.start.p0(i64 16, ptr %6) #8
  %14 = getelementptr inbounds nuw %struct.ForEachState, ptr %6, i32 0, i32 0
  %15 = load ptr, ptr %3, align 8
  store ptr %15, ptr %14, align 8
  %16 = getelementptr inbounds nuw %struct.ForEachState, ptr %6, i32 0, i32 1
  store i32 0, ptr %16, align 8
  %17 = getelementptr i8, ptr %6, i64 12
  call void @llvm.memset.p0.i64(ptr align 4 %17, i8 0, i64 4, i1 false)
  br label %18

18:                                               ; preds = %143, %2
  %19 = getelementptr inbounds nuw %struct.ForEachState, ptr %6, i32 0, i32 0
  %20 = load ptr, ptr %19, align 8
  %21 = icmp ne ptr %20, null
  br i1 %21, label %22, label %39

22:                                               ; preds = %18
  %23 = getelementptr inbounds nuw %struct.ForEachState, ptr %6, i32 0, i32 1
  %24 = load i32, ptr %23, align 8
  %25 = getelementptr inbounds nuw %struct.ForEachState, ptr %6, i32 0, i32 0
  %26 = load ptr, ptr %25, align 8
  %27 = getelementptr inbounds nuw %struct.List, ptr %26, i32 0, i32 1
  %28 = load i32, ptr %27, align 4
  %29 = icmp slt i32 %24, %28
  br i1 %29, label %30, label %39

30:                                               ; preds = %22
  %31 = getelementptr inbounds nuw %struct.ForEachState, ptr %6, i32 0, i32 0
  %32 = load ptr, ptr %31, align 8
  %33 = getelementptr inbounds nuw %struct.List, ptr %32, i32 0, i32 3
  %34 = load ptr, ptr %33, align 8
  %35 = getelementptr inbounds nuw %struct.ForEachState, ptr %6, i32 0, i32 1
  %36 = load i32, ptr %35, align 8
  %37 = sext i32 %36 to i64
  %38 = getelementptr inbounds %union.ListCell, ptr %34, i64 %37
  store ptr %38, ptr %5, align 8
  br label %40

39:                                               ; preds = %22, %18
  store ptr null, ptr %5, align 8
  br label %40

40:                                               ; preds = %39, %30
  %41 = phi i32 [ 1, %30 ], [ 0, %39 ]
  %42 = icmp ne i32 %41, 0
  br i1 %42, label %44, label %43

43:                                               ; preds = %40
  store i32 2, ptr %7, align 4
  call void @llvm.lifetime.end.p0(i64 16, ptr %6) #8
  br label %147

44:                                               ; preds = %40
  call void @llvm.lifetime.start.p0(i64 8, ptr %8) #8
  %45 = load ptr, ptr %5, align 8
  %46 = load ptr, ptr %45, align 8
  store ptr %46, ptr %8, align 8
  call void @llvm.lifetime.start.p0(i64 8, ptr %9) #8
  %47 = load ptr, ptr %8, align 8
  %48 = getelementptr inbounds nuw %struct.PlannedStmt, ptr %47, i32 0, i32 1
  %49 = load i32, ptr %48, align 4
  %50 = icmp eq i32 %49, 6
  br i1 %50, label %51, label %63

51:                                               ; preds = %44
  call void @llvm.lifetime.start.p0(i64 8, ptr %10) #8
  %52 = load ptr, ptr %8, align 8
  %53 = getelementptr inbounds nuw %struct.PlannedStmt, ptr %52, i32 0, i32 23
  %54 = load ptr, ptr %53, align 8
  %55 = call ptr @UtilityContainsQuery(ptr noundef %54)
  store ptr %55, ptr %10, align 8
  %56 = load ptr, ptr %10, align 8
  %57 = icmp ne ptr %56, null
  br i1 %57, label %58, label %62

58:                                               ; preds = %51
  %59 = load ptr, ptr %10, align 8
  %60 = load i8, ptr %4, align 1, !range !4, !noundef !5
  %61 = trunc i8 %60 to i1
  call void @ScanQueryForLocks(ptr noundef %59, i1 noundef zeroext %61)
  br label %62

62:                                               ; preds = %58, %51
  store i32 4, ptr %7, align 4
  call void @llvm.lifetime.end.p0(i64 8, ptr %10) #8
  br label %140

63:                                               ; preds = %44
  call void @llvm.lifetime.start.p0(i64 16, ptr %11) #8
  %64 = getelementptr inbounds nuw %struct.ForEachState, ptr %11, i32 0, i32 0
  %65 = load ptr, ptr %8, align 8
  %66 = getelementptr inbounds nuw %struct.PlannedStmt, ptr %65, i32 0, i32 12
  %67 = load ptr, ptr %66, align 8
  store ptr %67, ptr %64, align 8
  %68 = getelementptr inbounds nuw %struct.ForEachState, ptr %11, i32 0, i32 1
  store i32 0, ptr %68, align 8
  %69 = getelementptr i8, ptr %11, i64 12
  call void @llvm.memset.p0.i64(ptr align 4 %69, i8 0, i64 4, i1 false)
  br label %70

70:                                               ; preds = %135, %63
  %71 = getelementptr inbounds nuw %struct.ForEachState, ptr %11, i32 0, i32 0
  %72 = load ptr, ptr %71, align 8
  %73 = icmp ne ptr %72, null
  br i1 %73, label %74, label %91

74:                                               ; preds = %70
  %75 = getelementptr inbounds nuw %struct.ForEachState, ptr %11, i32 0, i32 1
  %76 = load i32, ptr %75, align 8
  %77 = getelementptr inbounds nuw %struct.ForEachState, ptr %11, i32 0, i32 0
  %78 = load ptr, ptr %77, align 8
  %79 = getelementptr inbounds nuw %struct.List, ptr %78, i32 0, i32 1
  %80 = load i32, ptr %79, align 4
  %81 = icmp slt i32 %76, %80
  br i1 %81, label %82, label %91

82:                                               ; preds = %74
  %83 = getelementptr inbounds nuw %struct.ForEachState, ptr %11, i32 0, i32 0
  %84 = load ptr, ptr %83, align 8
  %85 = getelementptr inbounds nuw %struct.List, ptr %84, i32 0, i32 3
  %86 = load ptr, ptr %85, align 8
  %87 = getelementptr inbounds nuw %struct.ForEachState, ptr %11, i32 0, i32 1
  %88 = load i32, ptr %87, align 8
  %89 = sext i32 %88 to i64
  %90 = getelementptr inbounds %union.ListCell, ptr %86, i64 %89
  store ptr %90, ptr %9, align 8
  br label %92

91:                                               ; preds = %74, %70
  store ptr null, ptr %9, align 8
  br label %92

92:                                               ; preds = %91, %82
  %93 = phi i32 [ 1, %82 ], [ 0, %91 ]
  %94 = icmp ne i32 %93, 0
  br i1 %94, label %96, label %95

95:                                               ; preds = %92
  store i32 5, ptr %7, align 4
  call void @llvm.lifetime.end.p0(i64 16, ptr %11) #8
  br label %139

96:                                               ; preds = %92
  call void @llvm.lifetime.start.p0(i64 8, ptr %12) #8
  %97 = load ptr, ptr %9, align 8
  %98 = load ptr, ptr %97, align 8
  store ptr %98, ptr %12, align 8
  %99 = load ptr, ptr %12, align 8
  %100 = getelementptr inbounds nuw %struct.RangeTblEntry, ptr %99, i32 0, i32 3
  %101 = load i32, ptr %100, align 8
  %102 = icmp eq i32 %101, 0
  br i1 %102, label %114, label %103

103:                                              ; preds = %96
  %104 = load ptr, ptr %12, align 8
  %105 = getelementptr inbounds nuw %struct.RangeTblEntry, ptr %104, i32 0, i32 3
  %106 = load i32, ptr %105, align 8
  %107 = icmp eq i32 %106, 1
  br i1 %107, label %108, label %113

108:                                              ; preds = %103
  %109 = load ptr, ptr %12, align 8
  %110 = getelementptr inbounds nuw %struct.RangeTblEntry, ptr %109, i32 0, i32 4
  %111 = load i32, ptr %110, align 4
  %112 = icmp ne i32 %111, 0
  br i1 %112, label %114, label %113

113:                                              ; preds = %108, %103
  store i32 7, ptr %7, align 4
  br label %132

114:                                              ; preds = %108, %96
  %115 = load i8, ptr %4, align 1, !range !4, !noundef !5
  %116 = trunc i8 %115 to i1
  br i1 %116, label %117, label %124

117:                                              ; preds = %114
  %118 = load ptr, ptr %12, align 8
  %119 = getelementptr inbounds nuw %struct.RangeTblEntry, ptr %118, i32 0, i32 4
  %120 = load i32, ptr %119, align 4
  %121 = load ptr, ptr %12, align 8
  %122 = getelementptr inbounds nuw %struct.RangeTblEntry, ptr %121, i32 0, i32 7
  %123 = load i32, ptr %122, align 4
  call void @LockRelationOid(i32 noundef %120, i32 noundef %123)
  br label %131

124:                                              ; preds = %114
  %125 = load ptr, ptr %12, align 8
  %126 = getelementptr inbounds nuw %struct.RangeTblEntry, ptr %125, i32 0, i32 4
  %127 = load i32, ptr %126, align 4
  %128 = load ptr, ptr %12, align 8
  %129 = getelementptr inbounds nuw %struct.RangeTblEntry, ptr %128, i32 0, i32 7
  %130 = load i32, ptr %129, align 4
  call void @UnlockRelationOid(i32 noundef %127, i32 noundef %130)
  br label %131

131:                                              ; preds = %124, %117
  store i32 0, ptr %7, align 4
  br label %132

132:                                              ; preds = %131, %113
  call void @llvm.lifetime.end.p0(i64 8, ptr %12) #8
  %133 = load i32, ptr %7, align 4
  switch i32 %133, label %148 [
    i32 0, label %134
    i32 7, label %135
  ]

134:                                              ; preds = %132
  br label %135

135:                                              ; preds = %134, %132
  %136 = getelementptr inbounds nuw %struct.ForEachState, ptr %11, i32 0, i32 1
  %137 = load i32, ptr %136, align 8
  %138 = add i32 %137, 1
  store i32 %138, ptr %136, align 8
  br label %70, !llvm.loop !27

139:                                              ; preds = %95
  store i32 0, ptr %7, align 4
  br label %140

140:                                              ; preds = %139, %62
  call void @llvm.lifetime.end.p0(i64 8, ptr %9) #8
  call void @llvm.lifetime.end.p0(i64 8, ptr %8) #8
  %141 = load i32, ptr %7, align 4
  switch i32 %141, label %148 [
    i32 0, label %142
    i32 4, label %143
  ]

142:                                              ; preds = %140
  br label %143

143:                                              ; preds = %142, %140
  %144 = getelementptr inbounds nuw %struct.ForEachState, ptr %6, i32 0, i32 1
  %145 = load i32, ptr %144, align 8
  %146 = add i32 %145, 1
  store i32 %146, ptr %144, align 8
  br label %18, !llvm.loop !28

147:                                              ; preds = %43
  call void @llvm.lifetime.end.p0(i64 8, ptr %5) #8
  ret void

148:                                              ; preds = %140, %132
  unreachable
}