; Function Attrs: nounwind uwtable
define internal fastcc void @AcquireExecutorLocks(ptr noundef readonly captures(address_is_null) %0, i1 noundef zeroext %1) unnamed_addr #0 {
  %3 = getelementptr inbounds nuw i8, ptr %0, i64 4
  %.not = icmp eq ptr %0, null
  br i1 %.not, label %._crit_edge, label %.lr.ph52

.lr.ph52:                                         ; preds = %2
  %4 = getelementptr inbounds nuw i8, ptr %0, i64 16
  %5 = load i32, ptr %3, align 4
  %6 = icmp sgt i32 %5, 0
  br i1 %1, label %.lr.ph52.split.us.preheader, label %.lr.ph52.split.preheader

.lr.ph52.split.preheader:                         ; preds = %.lr.ph52
  br i1 %6, label %.lr.ph75, label %._crit_edge

.lr.ph52.split.us.preheader:                      ; preds = %.lr.ph52
  br i1 %6, label %.lr.ph77, label %._crit_edge

.lr.ph77:                                         ; preds = %.lr.ph52.split.us.preheader, %.thread40.us
  %indvars.iv6576 = phi i64 [ %indvars.iv.next66, %.thread40.us ], [ 0, %.lr.ph52.split.us.preheader ]
  %7 = load ptr, ptr %4, align 8
  %8 = getelementptr inbounds nuw %union.ListCell, ptr %7, i64 %indvars.iv6576
  %9 = load ptr, ptr %8, align 8
  %10 = getelementptr inbounds nuw i8, ptr %9, i64 4
  %11 = load i32, ptr %10, align 4
  %12 = icmp eq i32 %11, 6
  br i1 %12, label %17, label %13

13:                                               ; preds = %.lr.ph77
  %14 = getelementptr inbounds nuw i8, ptr %9, i64 48
  %15 = load ptr, ptr %14, align 8
  %16 = getelementptr inbounds nuw i8, ptr %15, i64 4
  %.not33.us = icmp eq ptr %15, null
  br i1 %.not33.us, label %.thread40.us, label %.lr.ph.us

17:                                               ; preds = %.lr.ph77
  %18 = getelementptr inbounds nuw i8, ptr %9, i64 136
  %19 = load ptr, ptr %18, align 8
  %20 = tail call ptr @UtilityContainsQuery(ptr noundef %19) #9
  %.not36.us = icmp eq ptr %20, null
  br i1 %.not36.us, label %.thread40.us, label %21

21:                                               ; preds = %17
  tail call fastcc void @ScanQueryForLocks(ptr noundef nonnull %20, i1 noundef zeroext true)
  br label %.thread40.us

.thread40.us:                                     ; preds = %41, %.lr.ph.us, %13, %21, %17
  %indvars.iv.next66 = add nuw nsw i64 %indvars.iv6576, 1
  %22 = load i32, ptr %3, align 4
  %23 = sext i32 %22 to i64
  %24 = icmp slt i64 %indvars.iv.next66, %23
  br i1 %24, label %.lr.ph77, label %._crit_edge

.lr.ph.us:                                        ; preds = %13
  %25 = getelementptr inbounds nuw i8, ptr %15, i64 16
  %26 = load i32, ptr %16, align 4
  %27 = icmp sgt i32 %26, 0
  br i1 %27, label %.lr.ph50.us, label %.thread40.us

.lr.ph50.us:                                      ; preds = %.lr.ph.us, %41
  %28 = phi i32 [ %42, %41 ], [ %26, %.lr.ph.us ]
  %indvars.iv62 = phi i64 [ %indvars.iv.next63, %41 ], [ 0, %.lr.ph.us ]
  %29 = load ptr, ptr %25, align 8
  %30 = getelementptr inbounds nuw %union.ListCell, ptr %29, i64 %indvars.iv62
  %31 = load ptr, ptr %30, align 8
  %32 = getelementptr inbounds nuw i8, ptr %31, i64 24
  %33 = load i32, ptr %32, align 8
  switch i32 %33, label %41 [
    i32 0, label %.lr.ph50.us._crit_edge
    i32 1, label %34
  ]

.lr.ph50.us._crit_edge:                           ; preds = %.lr.ph50.us
  %.phi.trans.insert69 = getelementptr inbounds nuw i8, ptr %31, i64 28
  %.pre70 = load i32, ptr %.phi.trans.insert69, align 4
  br label %37

34:                                               ; preds = %.lr.ph50.us
  %35 = getelementptr inbounds nuw i8, ptr %31, i64 28
  %36 = load i32, ptr %35, align 4
  %.not35.us.us54 = icmp eq i32 %36, 0
  br i1 %.not35.us.us54, label %41, label %37

37:                                               ; preds = %.lr.ph50.us._crit_edge, %34
  %38 = phi i32 [ %.pre70, %.lr.ph50.us._crit_edge ], [ %36, %34 ]
  %39 = getelementptr inbounds nuw i8, ptr %31, i64 36
  %40 = load i32, ptr %39, align 4
  tail call void @LockRelationOid(i32 noundef %38, i32 noundef %40) #9
  %.pre71 = load i32, ptr %16, align 4
  br label %41

41:                                               ; preds = %37, %34, %.lr.ph50.us
  %42 = phi i32 [ %.pre71, %37 ], [ %28, %34 ], [ %28, %.lr.ph50.us ]
  %indvars.iv.next63 = add nuw nsw i64 %indvars.iv62, 1
  %43 = sext i32 %42 to i64
  %44 = icmp slt i64 %indvars.iv.next63, %43
  br i1 %44, label %.lr.ph50.us, label %.thread40.us

._crit_edge:                                      ; preds = %.thread40, %.thread40.us, %.lr.ph52.split.preheader, %.lr.ph52.split.us.preheader, %2
  ret void

.lr.ph75:                                         ; preds = %.lr.ph52.split.preheader, %.thread40
  %indvars.iv5974 = phi i64 [ %indvars.iv.next60, %.thread40 ], [ 0, %.lr.ph52.split.preheader ]
  %45 = load ptr, ptr %4, align 8
  %46 = getelementptr inbounds nuw %union.ListCell, ptr %45, i64 %indvars.iv5974
  %47 = load ptr, ptr %46, align 8
  %48 = getelementptr inbounds nuw i8, ptr %47, i64 4
  %49 = load i32, ptr %48, align 4
  %50 = icmp eq i32 %49, 6
  br i1 %50, label %51, label %56

51:                                               ; preds = %.lr.ph75
  %52 = getelementptr inbounds nuw i8, ptr %47, i64 136
  %53 = load ptr, ptr %52, align 8
  %54 = tail call ptr @UtilityContainsQuery(ptr noundef %53) #9
  %.not36 = icmp eq ptr %54, null
  br i1 %.not36, label %.thread40, label %55

55:                                               ; preds = %51
  tail call fastcc void @ScanQueryForLocks(ptr noundef nonnull %54, i1 noundef zeroext false)
  br label %.thread40

56:                                               ; preds = %.lr.ph75
  %57 = getelementptr inbounds nuw i8, ptr %47, i64 48
  %58 = load ptr, ptr %57, align 8
  %59 = getelementptr inbounds nuw i8, ptr %58, i64 4
  %.not33 = icmp eq ptr %58, null
  br i1 %.not33, label %.thread40, label %.lr.ph

.lr.ph:                                           ; preds = %56
  %60 = getelementptr inbounds nuw i8, ptr %58, i64 16
  %61 = load i32, ptr %59, align 4
  %62 = icmp sgt i32 %61, 0
  br i1 %62, label %.lr.ph48, label %.thread40

.lr.ph48:                                         ; preds = %.lr.ph, %76
  %63 = phi i32 [ %77, %76 ], [ %61, %.lr.ph ]
  %indvars.iv = phi i64 [ %indvars.iv.next, %76 ], [ 0, %.lr.ph ]
  %64 = load ptr, ptr %60, align 8
  %65 = getelementptr inbounds nuw %union.ListCell, ptr %64, i64 %indvars.iv
  %66 = load ptr, ptr %65, align 8
  %67 = getelementptr inbounds nuw i8, ptr %66, i64 24
  %68 = load i32, ptr %67, align 8
  switch i32 %68, label %76 [
    i32 0, label %.lr.ph48._crit_edge
    i32 1, label %69
  ]

.lr.ph48._crit_edge:                              ; preds = %.lr.ph48
  %.phi.trans.insert = getelementptr inbounds nuw i8, ptr %66, i64 28
  %.pre = load i32, ptr %.phi.trans.insert, align 4
  br label %72

69:                                               ; preds = %.lr.ph48
  %70 = getelementptr inbounds nuw i8, ptr %66, i64 28
  %71 = load i32, ptr %70, align 4
  %.not35 = icmp eq i32 %71, 0
  br i1 %.not35, label %76, label %72

72:                                               ; preds = %.lr.ph48._crit_edge, %69
  %73 = phi i32 [ %.pre, %.lr.ph48._crit_edge ], [ %71, %69 ]
  %74 = getelementptr inbounds nuw i8, ptr %66, i64 36
  %75 = load i32, ptr %74, align 4
  tail call void @UnlockRelationOid(i32 noundef %73, i32 noundef %75) #9
  %.pre68 = load i32, ptr %59, align 4
  br label %76

76:                                               ; preds = %72, %69, %.lr.ph48
  %77 = phi i32 [ %.pre68, %72 ], [ %63, %69 ], [ %63, %.lr.ph48 ]
  %indvars.iv.next = add nuw nsw i64 %indvars.iv, 1
  %78 = sext i32 %77 to i64
  %79 = icmp slt i64 %indvars.iv.next, %78
  br i1 %79, label %.lr.ph48, label %.thread40

.thread40:                                        ; preds = %76, %56, %.lr.ph, %51, %55
  %indvars.iv.next60 = add nuw nsw i64 %indvars.iv5974, 1
  %80 = load i32, ptr %3, align 4
  %81 = sext i32 %80 to i64
  %82 = icmp slt i64 %indvars.iv.next60, %81
  br i1 %82, label %.lr.ph75, label %._crit_edge
}